; ModuleID = 'source-C-CXX/16/1287.c'
source_filename = "source-C-CXX/16/1287.c"
target datalayout = "e-m:e-p270:32:32-p271:32:32-p272:64:64-i64:64-f80:128-n8:16:32:64-S128"
target triple = "x86_64-pc-linux-gnu"

@.str = private unnamed_addr constant [7 x i8] c"%s\0A%s\0A\00", align 1

; Function Attrs: nounwind sspstrong uwtable
define dso_local i32 @main() local_unnamed_addr #0 {
  %1 = alloca [300 x i8], align 16
  %2 = alloca [300 x i8], align 16
  %3 = alloca [300 x i32], align 16
  %4 = getelementptr inbounds [300 x i8], [300 x i8]* %1, i64 0, i64 0
  call void @llvm.lifetime.start.p0i8(i64 300, i8* nonnull %4) #6
  call void @llvm.memset.p0i8.i64(i8* noundef nonnull align 16 dereferenceable(300) %4, i8 0, i64 300, i1 false)
  %5 = getelementptr inbounds [300 x i8], [300 x i8]* %2, i64 0, i64 0
  call void @llvm.lifetime.start.p0i8(i64 300, i8* nonnull %5) #6
  call void @llvm.memset.p0i8.i64(i8* noundef nonnull align 16 dereferenceable(300) %5, i8 0, i64 300, i1 false)
  %6 = bitcast [300 x i32]* %3 to i8*
  call void @llvm.lifetime.start.p0i8(i64 1200, i8* nonnull %6) #6
  call void @llvm.memset.p0i8.i64(i8* noundef nonnull align 16 dereferenceable(1200) %6, i8 0, i64 1200, i1 false)
  %7 = call i32 (i8*, ...) bitcast (i32 (...)* @gets to i32 (i8*, ...)*)(i8* nonnull %4) #6
  %8 = icmp eq i32 %7, 0
  br i1 %8, label %50, label %9

9:                                                ; preds = %0, %43
  %10 = call i64 @strlen(i8* noundef nonnull %4) #7
  %11 = trunc i64 %10 to i32
  %12 = icmp sgt i32 %11, 0
  br i1 %12, label %13, label %43

13:                                               ; preds = %9
  %14 = and i64 %10, 4294967295
  br label %15

15:                                               ; preds = %13, %39
  %16 = phi i64 [ 0, %13 ], [ %41, %39 ]
  %17 = phi i32 [ 0, %13 ], [ %40, %39 ]
  %18 = getelementptr inbounds [300 x i8], [300 x i8]* %1, i64 0, i64 %16
  %19 = load i8, i8* %18, align 1, !tbaa !5
  switch i8 %19, label %37 [
    i8 40, label %20
    i8 41, label %26
  ]

20:                                               ; preds = %15
  %21 = add nsw i32 %17, 1
  %22 = sext i32 %17 to i64
  %23 = getelementptr inbounds [300 x i32], [300 x i32]* %3, i64 0, i64 %22
  %24 = trunc i64 %16 to i32
  store i32 %24, i32* %23, align 4, !tbaa !8
  %25 = getelementptr inbounds [300 x i8], [300 x i8]* %2, i64 0, i64 %16
  store i8 36, i8* %25, align 1, !tbaa !5
  br label %39

26:                                               ; preds = %15
  %27 = icmp eq i32 %17, 0
  %28 = getelementptr inbounds [300 x i8], [300 x i8]* %2, i64 0, i64 %16
  br i1 %27, label %29, label %30

29:                                               ; preds = %26
  store i8 63, i8* %28, align 1, !tbaa !5
  br label %39

30:                                               ; preds = %26
  store i8 32, i8* %28, align 1, !tbaa !5
  %31 = add nsw i32 %17, -1
  %32 = sext i32 %31 to i64
  %33 = getelementptr inbounds [300 x i32], [300 x i32]* %3, i64 0, i64 %32
  %34 = load i32, i32* %33, align 4, !tbaa !8
  %35 = sext i32 %34 to i64
  %36 = getelementptr inbounds [300 x i8], [300 x i8]* %2, i64 0, i64 %35
  store i8 32, i8* %36, align 1, !tbaa !5
  br label %39

37:                                               ; preds = %15
  %38 = getelementptr inbounds [300 x i8], [300 x i8]* %2, i64 0, i64 %16
  store i8 32, i8* %38, align 1, !tbaa !5
  br label %39

39:                                               ; preds = %20, %29, %30, %37
  %40 = phi i32 [ %21, %20 ], [ 0, %29 ], [ %31, %30 ], [ %17, %37 ]
  %41 = add nuw nsw i64 %16, 1
  %42 = icmp eq i64 %41, %14
  br i1 %42, label %43, label %15, !llvm.loop !10

43:                                               ; preds = %39, %9
  %44 = shl i64 %10, 32
  %45 = ashr exact i64 %44, 32
  %46 = getelementptr inbounds [300 x i8], [300 x i8]* %2, i64 0, i64 %45
  store i8 0, i8* %46, align 1, !tbaa !5
  %47 = call i32 (i8*, ...) @printf(i8* nonnull dereferenceable(1) getelementptr inbounds ([7 x i8], [7 x i8]* @.str, i64 0, i64 0), i8* nonnull %4, i8* nonnull %5)
  %48 = call i32 (i8*, ...) bitcast (i32 (...)* @gets to i32 (i8*, ...)*)(i8* nonnull %4) #6
  %49 = icmp eq i32 %48, 0
  br i1 %49, label %50, label %9, !llvm.loop !12

50:                                               ; preds = %43, %0
  call void @llvm.lifetime.end.p0i8(i64 1200, i8* nonnull %6) #6
  call void @llvm.lifetime.end.p0i8(i64 300, i8* nonnull %5) #6
  call void @llvm.lifetime.end.p0i8(i64 300, i8* nonnull %4) #6
  ret i32 0
}

; Function Attrs: argmemonly mustprogress nofree nosync nounwind willreturn
declare void @llvm.lifetime.start.p0i8(i64 immarg, i8* nocapture) #1

; Function Attrs: argmemonly mustprogress nofree nounwind willreturn writeonly
declare void @llvm.memset.p0i8.i64(i8* nocapture writeonly, i8, i64, i1 immarg) #2

declare i32 @gets(...) local_unnamed_addr #3

; Function Attrs: argmemonly mustprogress nofree nounwind readonly willreturn
declare i64 @strlen(i8* nocapture) local_unnamed_addr #4

; Function Attrs: nofree nounwind
declare noundef i32 @printf(i8* nocapture noundef readonly, ...) local_unnamed_addr #5

; Function Attrs: argmemonly mustprogress nofree nosync nounwind willreturn
declare void @llvm.lifetime.end.p0i8(i64 immarg, i8* nocapture) #1


!llvm.module.flags = !{!0, !1, !2, !3}
!llvm.ident = !{!4}

!0 = !{i32 1, !"wchar_size", i32 4}
!1 = !{i32 7, !"PIC Level", i32 2}
!2 = !{i32 7, !"PIE Level", i32 2}
!3 = !{i32 7, !"uwtable", i32 1}
!4 = !{!"clang version 13.0.0"}
!5 = !{!6, !6, i64 0}
!6 = !{!"omnipotent char", !7, i64 0}
!7 = !{!"Simple C/C++ TBAA"}
!8 = !{!9, !9, i64 0}
!9 = !{!"int", !6, i64 0}
!10 = distinct !{!10, !11}
!11 = !{!"llvm.loop.mustprogress"}
!12 = distinct !{!12, !11}
